target datalayout = "e-m:e-p270:32:32-p271:32:32-p272:64:64-i64:64-i128:128-f80:128-n8:16:32:64-S128"
target triple = "x86_64-pc-linux-gnu"

%struct.sp_int = type { i16, i16, [129 x i64] }
%struct.DhKey = type { %struct.sp_int, %struct.sp_int, %struct.sp_int, ptr, i32 }

@devId = internal global i32 -2, align 4
@__const.dh_generate_test.p = private unnamed_addr constant [2 x i8] c"\01\07", align 1
@__const.dh_generate_test.g = private unnamed_addr constant [2 x i8] c"\00\02", align 1

; Function Attrs: nounwind uwtable
define internal i32 @dh_generate_test(ptr noundef %0) #0 {
  %2 = alloca i32, align 4
  %3 = alloca ptr, align 8
  %4 = alloca i32, align 4
  %5 = alloca [1 x %struct.DhKey], align 16
  %6 = alloca [2 x i8], align 1
  %7 = alloca [2 x i8], align 1
  %8 = alloca i32, align 4
  %9 = alloca i32, align 4
  store ptr %0, ptr %3, align 8, !tbaa !123
  call void @llvm.lifetime.start.p0(i64 4, ptr %4) #10
  store i32 0, ptr %4, align 4, !tbaa !14
  call void @llvm.lifetime.start.p0(i64 3136, ptr %5) #10
  call void @llvm.lifetime.start.p0(i64 2, ptr %6) #10
  call void @llvm.memcpy.p0.p0.i64(ptr align 1 %6, ptr align 1 @__const.dh_generate_test.p, i64 2, i1 false)
  call void @llvm.lifetime.start.p0(i64 2, ptr %7) #10
  call void @llvm.memcpy.p0.p0.i64(ptr align 1 %7, ptr align 1 @__const.dh_generate_test.g, i64 2, i1 false)
  call void @llvm.lifetime.start.p0(i64 4, ptr %8) #10
  store i32 0, ptr %8, align 4, !tbaa !14
  %10 = getelementptr inbounds [1 x %struct.DhKey], ptr %5, i64 0, i64 0
  %11 = load i32, ptr @devId, align 4, !tbaa !14
  %12 = call i32 @wc_InitDhKey_ex(ptr noundef %10, ptr noundef null, i32 noundef %11)
  store i32 %12, ptr %4, align 4, !tbaa !14
  %13 = load i32, ptr %4, align 4, !tbaa !14
  %14 = icmp ne i32 %13, 0
  br i1 %14, label %15, label %30

15:                                               ; preds = %1
  br label %16

16:                                               ; preds = %15
  %17 = load i32, ptr %4, align 4, !tbaa !14
  %18 = sub nsw i32 0, %17
  %19 = zext i32 %18 to i64
  %20 = and i64 %19, 2047
  %21 = trunc i64 %20 to i32
  %22 = sext i32 %21 to i64
  %23 = mul nsw i64 %22, 100000
  %24 = add nsw i64 22816, %23
  %25 = add nsw i64 %24, 536870912
  %26 = sub nsw i64 0, %25
  %27 = trunc i64 %26 to i32
  store i32 %27, ptr %4, align 4, !tbaa !14
  br label %178

28:                                               ; No predecessors!
  br label %29

29:                                               ; preds = %28
  br label %30

30:                                               ; preds = %29, %1
  store i32 1, ptr %8, align 4, !tbaa !14
  %31 = load i32, ptr @devId, align 4, !tbaa !14
  %32 = call i32 @wc_InitDhKey_ex(ptr noundef null, ptr noundef null, i32 noundef %31)
  store i32 %32, ptr %4, align 4, !tbaa !14
  %33 = load i32, ptr %4, align 4, !tbaa !14
  %34 = icmp ne i32 %33, -173
  br i1 %34, label %35, label %47

35:                                               ; preds = %30
  %36 = load i32, ptr %4, align 4, !tbaa !14
  %37 = sub nsw i32 0, %36
  %38 = zext i32 %37 to i64
  %39 = and i64 %38, 2047
  %40 = trunc i64 %39 to i32
  %41 = sext i32 %40 to i64
  %42 = mul nsw i64 %41, 100000
  %43 = add nsw i64 22822, %42
  %44 = add nsw i64 %43, 536870912
  %45 = sub nsw i64 0, %44
  %46 = trunc i64 %45 to i32
  store i32 %46, ptr %2, align 4
  store i32 1, ptr %9, align 4
  br label %186

47:                                               ; preds = %30
  %48 = call i32 @wc_FreeDhKey(ptr noundef null)
  %49 = getelementptr inbounds [2 x i8], ptr %6, i64 0, i64 0
  %50 = getelementptr inbounds [2 x i8], ptr %7, i64 0, i64 0
  %51 = call i32 @wc_DhSetKey(ptr noundef null, ptr noundef %49, i32 noundef 2, ptr noundef %50, i32 noundef 2)
  store i32 %51, ptr %4, align 4, !tbaa !14
  %52 = load i32, ptr %4, align 4, !tbaa !14
  %53 = icmp ne i32 %52, -173
  br i1 %53, label %54, label %69

54:                                               ; preds = %47
  br label %55

55:                                               ; preds = %54
  %56 = load i32, ptr %4, align 4, !tbaa !14
  %57 = sub nsw i32 0, %56
  %58 = zext i32 %57 to i64
  %59 = and i64 %58, 2047
  %60 = trunc i64 %59 to i32
  %61 = sext i32 %60 to i64
  %62 = mul nsw i64 %61, 100000
  %63 = add nsw i64 22827, %62
  %64 = add nsw i64 %63, 536870912
  %65 = sub nsw i64 0, %64
  %66 = trunc i64 %65 to i32
  store i32 %66, ptr %4, align 4, !tbaa !14
  br label %178

67:                                               ; No predecessors!
  br label %68

68:                                               ; preds = %67
  br label %69

69:                                               ; preds = %68, %47
  %70 = getelementptr inbounds [1 x %struct.DhKey], ptr %5, i64 0, i64 0
  %71 = getelementptr inbounds [2 x i8], ptr %7, i64 0, i64 0
  %72 = call i32 @wc_DhSetKey(ptr noundef %70, ptr noundef null, i32 noundef 2, ptr noundef %71, i32 noundef 2)
  store i32 %72, ptr %4, align 4, !tbaa !14
  %73 = load i32, ptr %4, align 4, !tbaa !14
  %74 = icmp ne i32 %73, -173
  br i1 %74, label %75, label %90

75:                                               ; preds = %69
  br label %76

76:                                               ; preds = %75
  %77 = load i32, ptr %4, align 4, !tbaa !14
  %78 = sub nsw i32 0, %77
  %79 = zext i32 %78 to i64
  %80 = and i64 %79, 2047
  %81 = trunc i64 %80 to i32
  %82 = sext i32 %81 to i64
  %83 = mul nsw i64 %82, 100000
  %84 = add nsw i64 22831, %83
  %85 = add nsw i64 %84, 536870912
  %86 = sub nsw i64 0, %85
  %87 = trunc i64 %86 to i32
  store i32 %87, ptr %4, align 4, !tbaa !14
  br label %178

88:                                               ; No predecessors!
  br label %89

89:                                               ; preds = %88
  br label %90

90:                                               ; preds = %89, %69
  %91 = getelementptr inbounds [1 x %struct.DhKey], ptr %5, i64 0, i64 0
  %92 = getelementptr inbounds [2 x i8], ptr %6, i64 0, i64 0
  %93 = getelementptr inbounds [2 x i8], ptr %7, i64 0, i64 0
  %94 = call i32 @wc_DhSetKey(ptr noundef %91, ptr noundef %92, i32 noundef 0, ptr noundef %93, i32 noundef 2)
  store i32 %94, ptr %4, align 4, !tbaa !14
  %95 = load i32, ptr %4, align 4, !tbaa !14
  %96 = icmp ne i32 %95, -173
  br i1 %96, label %97, label %112

97:                                               ; preds = %90
  br label %98

98:                                               ; preds = %97
  %99 = load i32, ptr %4, align 4, !tbaa !14
  %100 = sub nsw i32 0, %99
  %101 = zext i32 %100 to i64
  %102 = and i64 %101, 2047
  %103 = trunc i64 %102 to i32
  %104 = sext i32 %103 to i64
  %105 = mul nsw i64 %104, 100000
  %106 = add nsw i64 22835, %105
  %107 = add nsw i64 %106, 536870912
  %108 = sub nsw i64 0, %107
  %109 = trunc i64 %108 to i32
  store i32 %109, ptr %4, align 4, !tbaa !14
  br label %178

110:                                              ; No predecessors!
  br label %111

111:                                              ; preds = %110
  br label %112

112:                                              ; preds = %111, %90
  %113 = getelementptr inbounds [1 x %struct.DhKey], ptr %5, i64 0, i64 0
  %114 = getelementptr inbounds [2 x i8], ptr %6, i64 0, i64 0
  %115 = call i32 @wc_DhSetKey(ptr noundef %113, ptr noundef %114, i32 noundef 2, ptr noundef null, i32 noundef 2)
  store i32 %115, ptr %4, align 4, !tbaa !14
  %116 = load i32, ptr %4, align 4, !tbaa !14
  %117 = icmp ne i32 %116, -173
  br i1 %117, label %118, label %133

118:                                              ; preds = %112
  br label %119

119:                                              ; preds = %118
  %120 = load i32, ptr %4, align 4, !tbaa !14
  %121 = sub nsw i32 0, %120
  %122 = zext i32 %121 to i64
  %123 = and i64 %122, 2047
  %124 = trunc i64 %123 to i32
  %125 = sext i32 %124 to i64
  %126 = mul nsw i64 %125, 100000
  %127 = add nsw i64 22839, %126
  %128 = add nsw i64 %127, 536870912
  %129 = sub nsw i64 0, %128
  %130 = trunc i64 %129 to i32
  store i32 %130, ptr %4, align 4, !tbaa !14
  br label %178

131:                                              ; No predecessors!
  br label %132

132:                                              ; preds = %131
  br label %133

133:                                              ; preds = %132, %112
  %134 = getelementptr inbounds [1 x %struct.DhKey], ptr %5, i64 0, i64 0
  %135 = getelementptr inbounds [2 x i8], ptr %6, i64 0, i64 0
  %136 = getelementptr inbounds [2 x i8], ptr %7, i64 0, i64 0
  %137 = call i32 @wc_DhSetKey(ptr noundef %134, ptr noundef %135, i32 noundef 2, ptr noundef %136, i32 noundef 0)
  store i32 %137, ptr %4, align 4, !tbaa !14
  %138 = load i32, ptr %4, align 4, !tbaa !14
  %139 = icmp ne i32 %138, -173
  br i1 %139, label %140, label %155

140:                                              ; preds = %133
  br label %141

141:                                              ; preds = %140
  %142 = load i32, ptr %4, align 4, !tbaa !14
  %143 = sub nsw i32 0, %142
  %144 = zext i32 %143 to i64
  %145 = and i64 %144, 2047
  %146 = trunc i64 %145 to i32
  %147 = sext i32 %146 to i64
  %148 = mul nsw i64 %147, 100000
  %149 = add nsw i64 22843, %148
  %150 = add nsw i64 %149, 536870912
  %151 = sub nsw i64 0, %150
  %152 = trunc i64 %151 to i32
  store i32 %152, ptr %4, align 4, !tbaa !14
  br label %178

153:                                              ; No predecessors!
  br label %154

154:                                              ; preds = %153
  br label %155

155:                                              ; preds = %154, %133
  %156 = getelementptr inbounds [1 x %struct.DhKey], ptr %5, i64 0, i64 0
  %157 = getelementptr inbounds [2 x i8], ptr %6, i64 0, i64 0
  %158 = getelementptr inbounds [2 x i8], ptr %7, i64 0, i64 0
  %159 = call i32 @wc_DhSetKey(ptr noundef %156, ptr noundef %157, i32 noundef 2, ptr noundef %158, i32 noundef 2)
  store i32 %159, ptr %4, align 4, !tbaa !14
  %160 = load i32, ptr %4, align 4, !tbaa !14
  %161 = icmp ne i32 %160, 0
  br i1 %161, label %162, label %177

162:                                              ; preds = %155
  br label %163

163:                                              ; preds = %162
  %164 = load i32, ptr %4, align 4, !tbaa !14
  %165 = sub nsw i32 0, %164
  %166 = zext i32 %165 to i64
  %167 = and i64 %166, 2047
  %168 = trunc i64 %167 to i32
  %169 = sext i32 %168 to i64
  %170 = mul nsw i64 %169, 100000
  %171 = add nsw i64 22847, %170
  %172 = add nsw i64 %171, 536870912
  %173 = sub nsw i64 0, %172
  %174 = trunc i64 %173 to i32
  store i32 %174, ptr %4, align 4, !tbaa !14
  br label %178

175:                                              ; No predecessors!
  br label %176

176:                                              ; preds = %175
  br label %177

177:                                              ; preds = %176, %155
  store i32 0, ptr %4, align 4, !tbaa !14
  br label %178

178:                                              ; preds = %177, %163, %141, %119, %98, %76, %55, %16
  %179 = load i32, ptr %8, align 4, !tbaa !14
  %180 = icmp ne i32 %179, 0
  br i1 %180, label %181, label %184

181:                                              ; preds = %178
  %182 = getelementptr inbounds [1 x %struct.DhKey], ptr %5, i64 0, i64 0
  %183 = call i32 @wc_FreeDhKey(ptr noundef %182)
  br label %184

184:                                              ; preds = %181, %178
  %185 = load i32, ptr %4, align 4, !tbaa !14
  store i32 %185, ptr %2, align 4
  store i32 1, ptr %9, align 4
  br label %186

186:                                              ; preds = %184, %35
  call void @llvm.lifetime.end.p0(i64 4, ptr %8) #10
  call void @llvm.lifetime.end.p0(i64 2, ptr %7) #10
  call void @llvm.lifetime.end.p0(i64 2, ptr %6) #10
  call void @llvm.lifetime.end.p0(i64 3136, ptr %5) #10
  call void @llvm.lifetime.end.p0(i64 4, ptr %4) #10
  %187 = load i32, ptr %2, align 4
  ret i32 %187
}