; Function Attrs: nounwind uwtable
define internal fastcc range(i32 -741593759, 1) i32 @dh_generate_test() unnamed_addr #0 {
  %1 = alloca [1 x %struct.DhKey], align 16
  %2 = alloca [2 x i8], align 2
  %3 = alloca [2 x i8], align 2
  call void @llvm.lifetime.start.p0(i64 3136, ptr nonnull %1) #19
  call void @llvm.lifetime.start.p0(i64 2, ptr nonnull %2) #19
  store i16 1793, ptr %2, align 2
  call void @llvm.lifetime.start.p0(i64 2, ptr nonnull %3) #19
  store i16 512, ptr %3, align 2
  %4 = call i32 @wc_InitDhKey_ex(ptr noundef nonnull %1, ptr noundef null, i32 noundef -2) #19
  %.not.not = icmp eq i32 %4, 0
  br i1 %.not.not, label %5, label %48

5:                                                ; preds = %0
  %6 = call i32 @wc_InitDhKey_ex(ptr noundef null, ptr noundef null, i32 noundef -2) #19
  %.not29 = icmp eq i32 %6, -173
  br i1 %.not29, label %11, label %7

7:                                                ; preds = %5
  %8 = sub nsw i32 0, %6
  %9 = and i32 %8, 2047
  %narrow.neg55 = mul nsw i32 %9, -100000
  %10 = add nsw i32 %narrow.neg55, -536893734
  br label %54

11:                                               ; preds = %5
  %12 = call i32 @wc_FreeDhKey(ptr noundef null) #19
  %13 = call i32 @wc_DhSetKey(ptr noundef null, ptr noundef nonnull %2, i32 noundef 2, ptr noundef nonnull %3, i32 noundef 2) #19
  %.not30 = icmp eq i32 %13, -173
  br i1 %.not30, label %18, label %14

14:                                               ; preds = %11
  %15 = sub nsw i32 0, %13
  %16 = and i32 %15, 2047
  %narrow.neg52 = mul nsw i32 %16, -100000
  %17 = add nsw i32 %narrow.neg52, -536893739
  br label %52

18:                                               ; preds = %11
  %19 = call i32 @wc_DhSetKey(ptr noundef nonnull %1, ptr noundef null, i32 noundef 2, ptr noundef nonnull %3, i32 noundef 2) #19
  %.not31 = icmp eq i32 %19, -173
  br i1 %.not31, label %24, label %20

20:                                               ; preds = %18
  %21 = sub nsw i32 0, %19
  %22 = and i32 %21, 2047
  %narrow.neg49 = mul nsw i32 %22, -100000
  %23 = add nsw i32 %narrow.neg49, -536893743
  br label %52

24:                                               ; preds = %18
  %25 = call i32 @wc_DhSetKey(ptr noundef nonnull %1, ptr noundef nonnull %2, i32 noundef 0, ptr noundef nonnull %3, i32 noundef 2) #19
  %.not32 = icmp eq i32 %25, -173
  br i1 %.not32, label %30, label %26

26:                                               ; preds = %24
  %27 = sub nsw i32 0, %25
  %28 = and i32 %27, 2047
  %narrow.neg46 = mul nsw i32 %28, -100000
  %29 = add nsw i32 %narrow.neg46, -536893747
  br label %52

30:                                               ; preds = %24
  %31 = call i32 @wc_DhSetKey(ptr noundef nonnull %1, ptr noundef nonnull %2, i32 noundef 2, ptr noundef null, i32 noundef 2) #19
  %.not33 = icmp eq i32 %31, -173
  br i1 %.not33, label %36, label %32

32:                                               ; preds = %30
  %33 = sub nsw i32 0, %31
  %34 = and i32 %33, 2047
  %narrow.neg43 = mul nsw i32 %34, -100000
  %35 = add nsw i32 %narrow.neg43, -536893751
  br label %52

36:                                               ; preds = %30
  %37 = call i32 @wc_DhSetKey(ptr noundef nonnull %1, ptr noundef nonnull %2, i32 noundef 2, ptr noundef nonnull %3, i32 noundef 0) #19
  %.not34 = icmp eq i32 %37, -173
  br i1 %.not34, label %42, label %38

38:                                               ; preds = %36
  %39 = sub nsw i32 0, %37
  %40 = and i32 %39, 2047
  %narrow.neg40 = mul nsw i32 %40, -100000
  %41 = add nsw i32 %narrow.neg40, -536893755
  br label %52

42:                                               ; preds = %36
  %43 = call i32 @wc_DhSetKey(ptr noundef nonnull %1, ptr noundef nonnull %2, i32 noundef 2, ptr noundef nonnull %3, i32 noundef 2) #19
  %.not35 = icmp eq i32 %43, 0
  br i1 %.not35, label %52, label %44

44:                                               ; preds = %42
  %45 = sub nsw i32 0, %43
  %46 = and i32 %45, 2047
  %narrow.neg = mul nsw i32 %46, -100000
  %47 = add nsw i32 %narrow.neg, -536893759
  br label %52

48:                                               ; preds = %0
  %49 = sub nsw i32 0, %4
  %50 = and i32 %49, 2047
  %narrow.neg58 = mul nsw i32 %50, -100000
  %51 = add nsw i32 %narrow.neg58, -536893728
  br label %54

52:                                               ; preds = %42, %44, %38, %32, %26, %20, %14
  %.019.ph = phi i32 [ 0, %42 ], [ %47, %44 ], [ %41, %38 ], [ %35, %32 ], [ %29, %26 ], [ %23, %20 ], [ %17, %14 ]
  %53 = call i32 @wc_FreeDhKey(ptr noundef nonnull %1) #19
  br label %54

54:                                               ; preds = %48, %52, %7
  %.020 = phi i32 [ %10, %7 ], [ %.019.ph, %52 ], [ %51, %48 ]
  call void @llvm.lifetime.end.p0(i64 2, ptr nonnull %3) #19
  call void @llvm.lifetime.end.p0(i64 2, ptr nonnull %2) #19
  call void @llvm.lifetime.end.p0(i64 3136, ptr nonnull %1) #19
  ret i32 %.020
}